target datalayout = "e-m:e-p270:32:32-p271:32:32-p272:64:64-i64:64-i128:128-f80:128-n8:16:32:64-S128"
target triple = "x86_64-pc-linux-gnu"

%struct.jpeg_decompress_struct = type { ptr, ptr, ptr, ptr, i32, i32, ptr, i32, i32, i32, i32, i32, i32, i32, double, i32, i32, i32, i32, i32, i32, i32, i32, i32, i32, i32, i32, i32, i32, i32, i32, i32, i32, ptr, i32, i32, i32, i32, i32, ptr, [4 x ptr], [4 x ptr], [4 x ptr], i32, ptr, i32, i32, [16 x i8], [16 x i8], [16 x i8], i32, i32, i8, i8, i8, i16, i16, i32, i8, i32, ptr, i32, i32, i32, i32, ptr, i32, [4 x ptr], i32, i32, i32, [10 x i32], i32, i32, i32, i32, i32, ptr, ptr, ptr, ptr, ptr, ptr, ptr, ptr, ptr, ptr, ptr }
%struct.my_main_controller = type { %struct.jpeg_d_main_controller, [10 x ptr], i32, i32, [2 x ptr], i32, i32, i32, i32 }
%struct.jpeg_d_main_controller = type { ptr, ptr }
%struct.jpeg_d_coef_controller = type { ptr, ptr, ptr, ptr, ptr }
%struct.jpeg_d_post_controller = type { ptr, ptr }

; Function Attrs: nounwind uwtable
define internal void @process_data_simple_main(ptr noundef %0, ptr noundef %1, ptr noundef %2, i32 noundef %3) #0 {
  %5 = alloca ptr, align 8
  %6 = alloca ptr, align 8
  %7 = alloca ptr, align 8
  %8 = alloca i32, align 4
  %9 = alloca ptr, align 8
  %10 = alloca i32, align 4
  store ptr %0, ptr %5, align 8
  store ptr %1, ptr %6, align 8
  store ptr %2, ptr %7, align 8
  store i32 %3, ptr %8, align 4
  %11 = load ptr, ptr %5, align 8
  %12 = getelementptr inbounds %struct.jpeg_decompress_struct, ptr %11, i32 0, i32 78
  %13 = load ptr, ptr %12, align 8
  store ptr %13, ptr %9, align 8
  %14 = load ptr, ptr %9, align 8
  %15 = getelementptr inbounds %struct.my_main_controller, ptr %14, i32 0, i32 2
  %16 = load i32, ptr %15, align 8
  %17 = icmp ne i32 %16, 0
  br i1 %17, label %34, label %18

18:                                               ; preds = %4
  %19 = load ptr, ptr %5, align 8
  %20 = getelementptr inbounds %struct.jpeg_decompress_struct, ptr %19, i32 0, i32 79
  %21 = load ptr, ptr %20, align 8
  %22 = getelementptr inbounds %struct.jpeg_d_coef_controller, ptr %21, i32 0, i32 3
  %23 = load ptr, ptr %22, align 8
  %24 = load ptr, ptr %5, align 8
  %25 = load ptr, ptr %9, align 8
  %26 = getelementptr inbounds %struct.my_main_controller, ptr %25, i32 0, i32 1
  %27 = getelementptr inbounds [10 x ptr], ptr %26, i64 0, i64 0
  %28 = call i32 %23(ptr noundef %24, ptr noundef %27)
  %29 = icmp ne i32 %28, 0
  br i1 %29, label %31, label %30

30:                                               ; preds = %18
  br label %63

31:                                               ; preds = %18
  %32 = load ptr, ptr %9, align 8
  %33 = getelementptr inbounds %struct.my_main_controller, ptr %32, i32 0, i32 2
  store i32 1, ptr %33, align 8
  br label %34

34:                                               ; preds = %31, %4
  %35 = load ptr, ptr %5, align 8
  %36 = getelementptr inbounds %struct.jpeg_decompress_struct, ptr %35, i32 0, i32 63
  %37 = load i32, ptr %36, align 8
  store i32 %37, ptr %10, align 4
  %38 = load ptr, ptr %5, align 8
  %39 = getelementptr inbounds %struct.jpeg_decompress_struct, ptr %38, i32 0, i32 80
  %40 = load ptr, ptr %39, align 8
  %41 = getelementptr inbounds %struct.jpeg_d_post_controller, ptr %40, i32 0, i32 1
  %42 = load ptr, ptr %41, align 8
  %43 = load ptr, ptr %5, align 8
  %44 = load ptr, ptr %9, align 8
  %45 = getelementptr inbounds %struct.my_main_controller, ptr %44, i32 0, i32 1
  %46 = getelementptr inbounds [10 x ptr], ptr %45, i64 0, i64 0
  %47 = load ptr, ptr %9, align 8
  %48 = getelementptr inbounds %struct.my_main_controller, ptr %47, i32 0, i32 3
  %49 = load i32, ptr %10, align 4
  %50 = load ptr, ptr %6, align 8
  %51 = load ptr, ptr %7, align 8
  %52 = load i32, ptr %8, align 4
  call void %42(ptr noundef %43, ptr noundef %46, ptr noundef %48, i32 noundef %49, ptr noundef %50, ptr noundef %51, i32 noundef %52)
  %53 = load ptr, ptr %9, align 8
  %54 = getelementptr inbounds %struct.my_main_controller, ptr %53, i32 0, i32 3
  %55 = load i32, ptr %54, align 4
  %56 = load i32, ptr %10, align 4
  %57 = icmp uge i32 %55, %56
  br i1 %57, label %58, label %63

58:                                               ; preds = %34
  %59 = load ptr, ptr %9, align 8
  %60 = getelementptr inbounds %struct.my_main_controller, ptr %59, i32 0, i32 2
  store i32 0, ptr %60, align 8
  %61 = load ptr, ptr %9, align 8
  %62 = getelementptr inbounds %struct.my_main_controller, ptr %61, i32 0, i32 3
  store i32 0, ptr %62, align 4
  br label %63

63:                                               ; preds = %58, %34, %30
  ret void
}