; Function Attrs: nounwind uwtable
define internal void @process_data_simple_main(ptr noundef %0, ptr noundef %1, ptr noundef %2, i32 noundef %3) #0 {
  %5 = getelementptr inbounds i8, ptr %0, i64 552
  %6 = load ptr, ptr %5, align 8
  %7 = getelementptr inbounds i8, ptr %6, i64 96
  %8 = load i32, ptr %7, align 8
  %.not = icmp eq i32 %8, 0
  br i1 %.not, label %9, label %17

9:                                                ; preds = %4
  %10 = getelementptr inbounds i8, ptr %0, i64 560
  %11 = load ptr, ptr %10, align 8
  %12 = getelementptr inbounds i8, ptr %11, i64 24
  %13 = load ptr, ptr %12, align 8
  %14 = getelementptr inbounds i8, ptr %6, i64 16
  %15 = tail call i32 %13(ptr noundef nonnull %0, ptr noundef nonnull %14) #2
  %.not18 = icmp eq i32 %15, 0
  br i1 %.not18, label %28, label %16

16:                                               ; preds = %9
  store i32 1, ptr %7, align 8
  br label %17

17:                                               ; preds = %16, %4
  %18 = getelementptr inbounds i8, ptr %0, i64 416
  %19 = load i32, ptr %18, align 8
  %20 = getelementptr inbounds i8, ptr %0, i64 568
  %21 = load ptr, ptr %20, align 8
  %22 = getelementptr inbounds i8, ptr %21, i64 8
  %23 = load ptr, ptr %22, align 8
  %24 = getelementptr inbounds i8, ptr %6, i64 16
  %25 = getelementptr inbounds i8, ptr %6, i64 100
  tail call void %23(ptr noundef nonnull %0, ptr noundef nonnull %24, ptr noundef nonnull %25, i32 noundef %19, ptr noundef %1, ptr noundef %2, i32 noundef %3) #2
  %26 = load i32, ptr %25, align 4
  %.not19 = icmp ult i32 %26, %19
  br i1 %.not19, label %28, label %27

27:                                               ; preds = %17
  store i32 0, ptr %7, align 8
  store i32 0, ptr %25, align 4
  br label %28

28:                                               ; preds = %9, %27, %17
  ret void
}